target datalayout = "e-m:e-p270:32:32-p271:32:32-p272:64:64-i64:64-i128:128-f80:128-n8:16:32:64-S128"
target triple = "x86_64-pc-linux-gnu"

%struct.lean_object = type { i32, i32 }

@l_Std_Time_Weekday_instInhabitedOrdinal___closed__9 = internal global ptr null, align 8
@l_Std_Time_Weekday_toOrdinal___closed__5 = internal global ptr null, align 8
@l_Std_Time_Weekday_toOrdinal___closed__11 = internal global ptr null, align 8
@l_Std_Time_Weekday_toOrdinal___closed__17 = internal global ptr null, align 8
@l_Std_Time_Weekday_toOrdinal___closed__23 = internal global ptr null, align 8
@l_Std_Time_Weekday_toOrdinal___closed__28 = internal global ptr null, align 8
@l_Std_Time_Weekday_toOrdinal___closed__34 = internal global ptr null, align 8

; Function Attrs: alwaysinline nounwind uwtable
define internal void @lean_dec_ref(ptr noundef %0) #0 {
  %2 = alloca ptr, align 8
  store ptr %0, ptr %2, align 8, !tbaa !4
  %3 = load ptr, ptr %2, align 8, !tbaa !4
  %4 = getelementptr inbounds nuw %struct.lean_object, ptr %3, i32 0, i32 0
  %5 = load i32, ptr %4, align 4, !tbaa !19
  %6 = icmp sgt i32 %5, 1
  %7 = zext i1 %6 to i32
  %8 = sext i32 %7 to i64
  %9 = call i64 @llvm.expect.i64(i64 %8, i64 1)
  %10 = icmp ne i64 %9, 0
  br i1 %10, label %11, label %16

11:                                               ; preds = %1
  %12 = load ptr, ptr %2, align 8, !tbaa !4
  %13 = getelementptr inbounds nuw %struct.lean_object, ptr %12, i32 0, i32 0
  %14 = load i32, ptr %13, align 4, !tbaa !19
  %15 = add i32 %14, -1
  store i32 %15, ptr %13, align 4, !tbaa !19
  br label %24

16:                                               ; preds = %1
  %17 = load ptr, ptr %2, align 8, !tbaa !4
  %18 = getelementptr inbounds nuw %struct.lean_object, ptr %17, i32 0, i32 0
  %19 = load i32, ptr %18, align 4, !tbaa !19
  %20 = icmp ne i32 %19, 0
  br i1 %20, label %21, label %23

21:                                               ; preds = %16
  %22 = load ptr, ptr %2, align 8, !tbaa !4
  call void @lean_dec_ref_cold(ptr noundef %22)
  br label %23

23:                                               ; preds = %21, %16
  br label %24

24:                                               ; preds = %23, %11
  ret void
}

; Function Attrs: alwaysinline nounwind uwtable
define internal zeroext i1 @lean_is_scalar(ptr noundef %0) #0 {
  %2 = alloca ptr, align 8
  store ptr %0, ptr %2, align 8, !tbaa !4
  %3 = load ptr, ptr %2, align 8, !tbaa !4
  %4 = ptrtoint ptr %3 to i64
  %5 = and i64 %4, 1
  %6 = icmp eq i64 %5, 1
  ret i1 %6
}

; Function Attrs: nounwind uwtable
define ptr @l_Std_Time_Weekday_toOrdinal(i8 noundef zeroext %0) #2 {
  %2 = alloca ptr, align 8
  %3 = alloca i8, align 1
  %4 = alloca ptr, align 8
  %5 = alloca ptr, align 8
  %6 = alloca ptr, align 8
  %7 = alloca ptr, align 8
  %8 = alloca ptr, align 8
  %9 = alloca ptr, align 8
  %10 = alloca ptr, align 8
  store i8 %0, ptr %3, align 1, !tbaa !10
  br label %11

11:                                               ; preds = %1
  %12 = load i8, ptr %3, align 1, !tbaa !10
  %13 = zext i8 %12 to i32
  switch i32 %13, label %32 [
    i32 0, label %14
    i32 1, label %17
    i32 2, label %20
    i32 3, label %23
    i32 4, label %26
    i32 5, label %29
  ]

14:                                               ; preds = %11
  call void @llvm.lifetime.start.p0(i64 8, ptr %4) #7
  %15 = load ptr, ptr @l_Std_Time_Weekday_instInhabitedOrdinal___closed__9, align 8, !tbaa !4
  store ptr %15, ptr %4, align 8, !tbaa !4
  %16 = load ptr, ptr %4, align 8, !tbaa !4
  store ptr %16, ptr %2, align 8
  call void @llvm.lifetime.end.p0(i64 8, ptr %4) #7
  br label %35

17:                                               ; preds = %11
  call void @llvm.lifetime.start.p0(i64 8, ptr %5) #7
  %18 = load ptr, ptr @l_Std_Time_Weekday_toOrdinal___closed__5, align 8, !tbaa !4
  store ptr %18, ptr %5, align 8, !tbaa !4
  %19 = load ptr, ptr %5, align 8, !tbaa !4
  store ptr %19, ptr %2, align 8
  call void @llvm.lifetime.end.p0(i64 8, ptr %5) #7
  br label %35

20:                                               ; preds = %11
  call void @llvm.lifetime.start.p0(i64 8, ptr %6) #7
  %21 = load ptr, ptr @l_Std_Time_Weekday_toOrdinal___closed__11, align 8, !tbaa !4
  store ptr %21, ptr %6, align 8, !tbaa !4
  %22 = load ptr, ptr %6, align 8, !tbaa !4
  store ptr %22, ptr %2, align 8
  call void @llvm.lifetime.end.p0(i64 8, ptr %6) #7
  br label %35

23:                                               ; preds = %11
  call void @llvm.lifetime.start.p0(i64 8, ptr %7) #7
  %24 = load ptr, ptr @l_Std_Time_Weekday_toOrdinal___closed__17, align 8, !tbaa !4
  store ptr %24, ptr %7, align 8, !tbaa !4
  %25 = load ptr, ptr %7, align 8, !tbaa !4
  store ptr %25, ptr %2, align 8
  call void @llvm.lifetime.end.p0(i64 8, ptr %7) #7
  br label %35

26:                                               ; preds = %11
  call void @llvm.lifetime.start.p0(i64 8, ptr %8) #7
  %27 = load ptr, ptr @l_Std_Time_Weekday_toOrdinal___closed__23, align 8, !tbaa !4
  store ptr %27, ptr %8, align 8, !tbaa !4
  %28 = load ptr, ptr %8, align 8, !tbaa !4
  store ptr %28, ptr %2, align 8
  call void @llvm.lifetime.end.p0(i64 8, ptr %8) #7
  br label %35

29:                                               ; preds = %11
  call void @llvm.lifetime.start.p0(i64 8, ptr %9) #7
  %30 = load ptr, ptr @l_Std_Time_Weekday_toOrdinal___closed__28, align 8, !tbaa !4
  store ptr %30, ptr %9, align 8, !tbaa !4
  %31 = load ptr, ptr %9, align 8, !tbaa !4
  store ptr %31, ptr %2, align 8
  call void @llvm.lifetime.end.p0(i64 8, ptr %9) #7
  br label %35

32:                                               ; preds = %11
  call void @llvm.lifetime.start.p0(i64 8, ptr %10) #7
  %33 = load ptr, ptr @l_Std_Time_Weekday_toOrdinal___closed__34, align 8, !tbaa !4
  store ptr %33, ptr %10, align 8, !tbaa !4
  %34 = load ptr, ptr %10, align 8, !tbaa !4
  store ptr %34, ptr %2, align 8
  call void @llvm.lifetime.end.p0(i64 8, ptr %10) #7
  br label %35

35:                                               ; preds = %32, %29, %26, %23, %20, %17, %14
  %36 = load ptr, ptr %2, align 8
  ret ptr %36
}

; Function Attrs: alwaysinline nounwind uwtable
define internal void @lean_dec(ptr noundef %0) #0 {
  %2 = alloca ptr, align 8
  store ptr %0, ptr %2, align 8, !tbaa !4
  %3 = load ptr, ptr %2, align 8, !tbaa !4
  %4 = call zeroext i1 @lean_is_scalar(ptr noundef %3)
  br i1 %4, label %7, label %5

5:                                                ; preds = %1
  %6 = load ptr, ptr %2, align 8, !tbaa !4
  call void @lean_dec_ref(ptr noundef %6)
  br label %7

7:                                                ; preds = %5, %1
  ret void
}

; Function Attrs: inlinehint nounwind uwtable
define internal i64 @lean_unbox(ptr noundef %0) #1 {
  %2 = alloca ptr, align 8
  store ptr %0, ptr %2, align 8, !tbaa !4
  %3 = load ptr, ptr %2, align 8, !tbaa !4
  %4 = ptrtoint ptr %3 to i64
  %5 = lshr i64 %4, 1
  ret i64 %5
}

; Function Attrs: nounwind uwtable
define ptr @l_Std_Time_Weekday_toOrdinal___boxed(ptr noundef %0) #2 {
  %2 = alloca ptr, align 8
  %3 = alloca i8, align 1
  %4 = alloca ptr, align 8
  store ptr %0, ptr %2, align 8, !tbaa !4
  br label %5

5:                                                ; preds = %1
  call void @llvm.lifetime.start.p0(i64 1, ptr %3) #7
  call void @llvm.lifetime.start.p0(i64 8, ptr %4) #7
  %6 = load ptr, ptr %2, align 8, !tbaa !4
  %7 = call i64 @lean_unbox(ptr noundef %6)
  %8 = trunc i64 %7 to i8
  store i8 %8, ptr %3, align 1, !tbaa !10
  %9 = load ptr, ptr %2, align 8, !tbaa !4
  call void @lean_dec(ptr noundef %9)
  %10 = load i8, ptr %3, align 1, !tbaa !10
  %11 = call ptr @l_Std_Time_Weekday_toOrdinal(i8 noundef zeroext %10)
  store ptr %11, ptr %4, align 8, !tbaa !4
  %12 = load ptr, ptr %4, align 8, !tbaa !4
  call void @llvm.lifetime.end.p0(i64 8, ptr %4) #7
  call void @llvm.lifetime.end.p0(i64 1, ptr %3) #7
  ret ptr %12
}